target datalayout = "e-m:e-p270:32:32-p271:32:32-p272:64:64-i64:64-i128:128-f80:128-n8:16:32:64-S128"
target triple = "x86_64-pc-linux-gnu"

%struct.HASHCTL = type { i64, i64, i64, i64, i64, i64, ptr, ptr, ptr, ptr, ptr, ptr }
%struct.FastPathStrongRelationLockData = type { i8, [1024 x i32] }

@max_locks_per_xact = dso_local global i32 0, align 4
@MaxBackends = external global i32, align 4
@max_prepared_xacts = external global i32, align 4
@.str = private unnamed_addr constant [10 x i8] c"LOCK hash\00", align 1
@LockMethodLockHash = internal global ptr null, align 8
@.str.1 = private unnamed_addr constant [14 x i8] c"PROCLOCK hash\00", align 1
@LockMethodProcLockHash = internal global ptr null, align 8
@.str.2 = private unnamed_addr constant [36 x i8] c"Fast Path Strong Relation Lock Data\00", align 1
@FastPathStrongRelationLocks = internal global ptr null, align 8

; Function Attrs: nounwind uwtable
define dso_local void @LockManagerShmemInit() #0 {
  %1 = alloca %struct.HASHCTL, align 8
  %2 = alloca i64, align 8
  %3 = alloca i64, align 8
  %4 = alloca i8, align 1
  call void @llvm.lifetime.start.p0(i64 96, ptr %1) #9
  call void @llvm.lifetime.start.p0(i64 8, ptr %2) #9
  call void @llvm.lifetime.start.p0(i64 8, ptr %3) #9
  call void @llvm.lifetime.start.p0(i64 1, ptr %4) #9
  %5 = load i32, ptr @max_locks_per_xact, align 4
  %6 = sext i32 %5 to i64
  %7 = load i32, ptr @MaxBackends, align 4
  %8 = sext i32 %7 to i64
  %9 = load i32, ptr @max_prepared_xacts, align 4
  %10 = sext i32 %9 to i64
  %11 = call i64 @add_size(i64 noundef %8, i64 noundef %10)
  %12 = call i64 @mul_size(i64 noundef %6, i64 noundef %11)
  store i64 %12, ptr %3, align 8
  %13 = load i64, ptr %3, align 8
  %14 = sdiv i64 %13, 2
  store i64 %14, ptr %2, align 8
  %15 = getelementptr inbounds nuw %struct.HASHCTL, ptr %1, i32 0, i32 4
  store i64 16, ptr %15, align 8
  %16 = getelementptr inbounds nuw %struct.HASHCTL, ptr %1, i32 0, i32 5
  store i64 152, ptr %16, align 8
  %17 = getelementptr inbounds nuw %struct.HASHCTL, ptr %1, i32 0, i32 0
  store i64 16, ptr %17, align 8
  %18 = load i64, ptr %2, align 8
  %19 = load i64, ptr %3, align 8
  %20 = call ptr @ShmemInitHash(ptr noundef @.str, i64 noundef %18, i64 noundef %19, ptr noundef %1, i32 noundef 41)
  store ptr %20, ptr @LockMethodLockHash, align 8
  %21 = load i64, ptr %3, align 8
  %22 = mul i64 %21, 2
  store i64 %22, ptr %3, align 8
  %23 = load i64, ptr %2, align 8
  %24 = mul i64 %23, 2
  store i64 %24, ptr %2, align 8
  %25 = getelementptr inbounds nuw %struct.HASHCTL, ptr %1, i32 0, i32 4
  store i64 16, ptr %25, align 8
  %26 = getelementptr inbounds nuw %struct.HASHCTL, ptr %1, i32 0, i32 5
  store i64 64, ptr %26, align 8
  %27 = getelementptr inbounds nuw %struct.HASHCTL, ptr %1, i32 0, i32 6
  store ptr @proclock_hash, ptr %27, align 8
  %28 = getelementptr inbounds nuw %struct.HASHCTL, ptr %1, i32 0, i32 0
  store i64 16, ptr %28, align 8
  %29 = load i64, ptr %2, align 8
  %30 = load i64, ptr %3, align 8
  %31 = call ptr @ShmemInitHash(ptr noundef @.str.1, i64 noundef %29, i64 noundef %30, ptr noundef %1, i32 noundef 73)
  store ptr %31, ptr @LockMethodProcLockHash, align 8
  %32 = call ptr @ShmemInitStruct(ptr noundef @.str.2, i64 noundef 4100, ptr noundef %4)
  store ptr %32, ptr @FastPathStrongRelationLocks, align 8
  %33 = load i8, ptr %4, align 1, !range !4, !noundef !5
  %34 = trunc i8 %33 to i1
  br i1 %34, label %41, label %35

35:                                               ; preds = %0
  br label %36

36:                                               ; preds = %35
  call void asm sideeffect "", "~{memory},~{dirflag},~{fpsr},~{flags}"() #9, !srcloc !6
  %37 = load ptr, ptr @FastPathStrongRelationLocks, align 8
  %38 = getelementptr inbounds nuw %struct.FastPathStrongRelationLockData, ptr %37, i32 0, i32 0
  store volatile i8 0, ptr %38, align 4
  br label %39

39:                                               ; preds = %36
  br label %40

40:                                               ; preds = %39
  br label %41

41:                                               ; preds = %40, %0
  call void @llvm.lifetime.end.p0(i64 1, ptr %4) #9
  call void @llvm.lifetime.end.p0(i64 8, ptr %3) #9
  call void @llvm.lifetime.end.p0(i64 8, ptr %2) #9
  call void @llvm.lifetime.end.p0(i64 96, ptr %1) #9
  ret void
}