; Function Attrs: nounwind uwtable
define dso_local void @LockManagerShmemInit() local_unnamed_addr #0 {
  %1 = alloca %struct.HASHCTL, align 8
  %2 = alloca i8, align 1
  call void @llvm.lifetime.start.p0(i64 96, ptr nonnull %1) #17
  call void @llvm.lifetime.start.p0(i64 1, ptr nonnull %2) #17
  %3 = load i32, ptr @max_locks_per_xact, align 4
  %4 = sext i32 %3 to i64
  %5 = load i32, ptr @MaxBackends, align 4
  %6 = sext i32 %5 to i64
  %7 = load i32, ptr @max_prepared_xacts, align 4
  %8 = sext i32 %7 to i64
  %9 = tail call i64 @add_size(i64 noundef %6, i64 noundef %8) #17
  %10 = tail call i64 @mul_size(i64 noundef %4, i64 noundef %9) #17
  %11 = sdiv i64 %10, 2
  %12 = getelementptr inbounds nuw i8, ptr %1, i64 32
  store i64 16, ptr %12, align 8
  %13 = getelementptr inbounds nuw i8, ptr %1, i64 40
  store i64 152, ptr %13, align 8
  store i64 16, ptr %1, align 8
  %14 = call ptr @ShmemInitHash(ptr noundef nonnull @.str, i64 noundef %11, i64 noundef %10, ptr noundef nonnull %1, i32 noundef 41) #17
  store ptr %14, ptr @LockMethodLockHash, align 8
  %15 = shl i64 %10, 1
  %16 = shl nsw i64 %11, 1
  store i64 16, ptr %12, align 8
  store i64 64, ptr %13, align 8
  %17 = getelementptr inbounds nuw i8, ptr %1, i64 48
  store ptr @proclock_hash, ptr %17, align 8
  store i64 16, ptr %1, align 8
  %18 = call ptr @ShmemInitHash(ptr noundef nonnull @.str.1, i64 noundef %16, i64 noundef %15, ptr noundef nonnull %1, i32 noundef 73) #17
  store ptr %18, ptr @LockMethodProcLockHash, align 8
  %19 = call ptr @ShmemInitStruct(ptr noundef nonnull @.str.2, i64 noundef 4100, ptr noundef nonnull %2) #17
  store ptr %19, ptr @FastPathStrongRelationLocks, align 8
  %20 = load i8, ptr %2, align 1, !range !4, !noundef !5
  %21 = trunc nuw i8 %20 to i1
  br i1 %21, label %24, label %22

22:                                               ; preds = %0
  call void asm sideeffect "", "~{memory},~{dirflag},~{fpsr},~{flags}"() #17, !srcloc !6
  %23 = load ptr, ptr @FastPathStrongRelationLocks, align 8
  store volatile i8 0, ptr %23, align 4
  br label %24

24:                                               ; preds = %22, %0
  call void @llvm.lifetime.end.p0(i64 1, ptr nonnull %2) #17
  call void @llvm.lifetime.end.p0(i64 96, ptr nonnull %1) #17
  ret void
}